target datalayout = "e-m:e-p270:32:32-p271:32:32-p272:64:64-i64:64-i128:128-f80:128-n8:16:32:64-S128"
target triple = "x86_64-pc-linux-gnu"

; Function Attrs: nounwind uwtable
define dso_local i32 @bit_equal(ptr noundef %0, ptr noundef %1) #0 {
  %3 = alloca i32, align 4
  %4 = alloca ptr, align 8
  %5 = alloca ptr, align 8
  %6 = alloca i64, align 8
  %7 = alloca i64, align 8
  %8 = alloca i32, align 4
  %9 = alloca i64, align 8
  store ptr %0, ptr %4, align 8
  store ptr %1, ptr %5, align 8
  call void @llvm.lifetime.start.p0(i64 8, ptr %6) #12
  call void @llvm.lifetime.start.p0(i64 8, ptr %7) #12
  br label %10

10:                                               ; preds = %2
  br label %11

11:                                               ; preds = %10
  br label %12

12:                                               ; preds = %11
  br label %13

13:                                               ; preds = %12
  br label %14

14:                                               ; preds = %13
  br label %15

15:                                               ; preds = %14
  %16 = load ptr, ptr %4, align 8
  %17 = getelementptr inbounds i64, ptr %16, i64 1
  %18 = load i64, ptr %17, align 8
  %19 = load ptr, ptr %5, align 8
  %20 = getelementptr inbounds i64, ptr %19, i64 1
  %21 = load i64, ptr %20, align 8
  %22 = icmp ne i64 %18, %21
  br i1 %22, label %23, label %24

23:                                               ; preds = %15
  store i32 0, ptr %3, align 4
  store i32 1, ptr %8, align 4
  br label %83

24:                                               ; preds = %15
  %25 = load ptr, ptr %4, align 8
  %26 = getelementptr inbounds i64, ptr %25, i64 1
  %27 = load i64, ptr %26, align 8
  store i64 %27, ptr %7, align 8
  store i64 0, ptr %6, align 8
  br label %28

28:                                               ; preds = %49, %24
  %29 = load i64, ptr %6, align 8
  %30 = add i64 %29, 64
  %31 = load i64, ptr %7, align 8
  %32 = icmp ule i64 %30, %31
  br i1 %32, label %33, label %52

33:                                               ; preds = %28
  %34 = load ptr, ptr %4, align 8
  %35 = load i64, ptr %6, align 8
  %36 = ashr i64 %35, 6
  %37 = add nsw i64 %36, 2
  %38 = getelementptr inbounds i64, ptr %34, i64 %37
  %39 = load i64, ptr %38, align 8
  %40 = load ptr, ptr %5, align 8
  %41 = load i64, ptr %6, align 8
  %42 = ashr i64 %41, 6
  %43 = add nsw i64 %42, 2
  %44 = getelementptr inbounds i64, ptr %40, i64 %43
  %45 = load i64, ptr %44, align 8
  %46 = icmp ne i64 %39, %45
  br i1 %46, label %47, label %48

47:                                               ; preds = %33
  store i32 0, ptr %3, align 4
  store i32 1, ptr %8, align 4
  br label %83

48:                                               ; preds = %33
  br label %49

49:                                               ; preds = %48
  %50 = load i64, ptr %6, align 8
  %51 = add i64 %50, 64
  store i64 %51, ptr %6, align 8
  br label %28, !llvm.loop !34

52:                                               ; preds = %28
  %53 = load i64, ptr %6, align 8
  %54 = load i64, ptr %7, align 8
  %55 = icmp slt i64 %53, %54
  br i1 %55, label %56, label %82

56:                                               ; preds = %52
  call void @llvm.lifetime.start.p0(i64 8, ptr %9) #12
  %57 = load i64, ptr %7, align 8
  %58 = and i64 %57, 63
  %59 = shl i64 1, %58
  %60 = sub nsw i64 %59, 1
  store i64 %60, ptr %9, align 8
  %61 = load ptr, ptr %4, align 8
  %62 = load i64, ptr %6, align 8
  %63 = ashr i64 %62, 6
  %64 = add nsw i64 %63, 2
  %65 = getelementptr inbounds i64, ptr %61, i64 %64
  %66 = load i64, ptr %65, align 8
  %67 = load ptr, ptr %5, align 8
  %68 = load i64, ptr %6, align 8
  %69 = ashr i64 %68, 6
  %70 = add nsw i64 %69, 2
  %71 = getelementptr inbounds i64, ptr %67, i64 %70
  %72 = load i64, ptr %71, align 8
  %73 = xor i64 %66, %72
  %74 = load i64, ptr %9, align 8
  %75 = and i64 %73, %74
  %76 = icmp ne i64 %75, 0
  br i1 %76, label %77, label %78

77:                                               ; preds = %56
  store i32 0, ptr %3, align 4
  store i32 1, ptr %8, align 4
  br label %79

78:                                               ; preds = %56
  store i32 0, ptr %8, align 4
  br label %79

79:                                               ; preds = %78, %77
  call void @llvm.lifetime.end.p0(i64 8, ptr %9) #12
  %80 = load i32, ptr %8, align 4
  switch i32 %80, label %83 [
    i32 0, label %81
  ]

81:                                               ; preds = %79
  br label %82

82:                                               ; preds = %81, %52
  store i32 1, ptr %3, align 4
  store i32 1, ptr %8, align 4
  br label %83

83:                                               ; preds = %82, %79, %47, %23
  call void @llvm.lifetime.end.p0(i64 8, ptr %7) #12
  call void @llvm.lifetime.end.p0(i64 8, ptr %6) #12
  %84 = load i32, ptr %3, align 4
  ret i32 %84
}