; Function Attrs: nofree norecurse nosync nounwind memory(argmem: read) uwtable
define dso_local range(i32 0, 2) i32 @bit_equal(ptr noundef readonly captures(none) %0, ptr noundef readonly captures(none) %1) #3 {
  %3 = getelementptr inbounds nuw i8, ptr %0, i64 8
  %4 = load i64, ptr %3, align 8
  %5 = getelementptr inbounds nuw i8, ptr %1, i64 8
  %6 = load i64, ptr %5, align 8
  %.not = icmp eq i64 %4, %6
  br i1 %.not, label %.preheader, label %.loopexit

.preheader:                                       ; preds = %2, %8
  %.020 = phi i64 [ %7, %8 ], [ 0, %2 ]
  %7 = add i64 %.020, 64
  %.not23 = icmp ugt i64 %7, %4
  br i1 %.not23, label %15, label %8

8:                                                ; preds = %.preheader
  %9 = ashr exact i64 %.020, 6
  %10 = add nsw i64 %9, 2
  %11 = getelementptr inbounds i64, ptr %0, i64 %10
  %12 = load i64, ptr %11, align 8
  %13 = getelementptr inbounds i64, ptr %1, i64 %10
  %14 = load i64, ptr %13, align 8
  %.not25 = icmp eq i64 %12, %14
  br i1 %.not25, label %.preheader, label %.loopexit, !llvm.loop !36

15:                                               ; preds = %.preheader
  %16 = icmp slt i64 %.020, %4
  br i1 %16, label %17, label %28

17:                                               ; preds = %15
  %18 = and i64 %4, 63
  %notmask = shl nsw i64 -1, %18
  %19 = xor i64 %notmask, -1
  %20 = ashr exact i64 %.020, 6
  %21 = add nsw i64 %20, 2
  %22 = getelementptr inbounds i64, ptr %0, i64 %21
  %23 = load i64, ptr %22, align 8
  %24 = getelementptr inbounds i64, ptr %1, i64 %21
  %25 = load i64, ptr %24, align 8
  %26 = xor i64 %25, %23
  %27 = and i64 %26, %19
  %.not24 = icmp eq i64 %27, 0
  br i1 %.not24, label %28, label %.loopexit

28:                                               ; preds = %17, %15
  br label %.loopexit

.loopexit:                                        ; preds = %8, %2, %17, %28
  %.0 = phi i32 [ 1, %28 ], [ 0, %17 ], [ 0, %2 ], [ 0, %8 ]
  ret i32 %.0
}